target datalayout = "e-m:e-p270:32:32-p271:32:32-p272:64:64-i64:64-i128:128-f80:128-n8:16:32:64-S128"
target triple = "x86_64-unknown-linux-gnu"

%"struct.std::atomic" = type { %"struct.std::__atomic_base" }
%"struct.std::__atomic_base" = type { i64 }
%"class.tbb::detail::d1::wait_context" = type { i64, %"struct.std::atomic" }
%class.anon.403 = type { ptr }
%"class.tbb::detail::d1::task" = type { ptr, %"class.tbb::detail::d1::task_traits", [6 x i64] }
%"class.tbb::detail::d1::task_traits" = type { i64 }
%"class.tbb::detail::d1::small_object_allocator" = type { ptr }
%"class.tbb::detail::d2::feeder_impl" = type { %"class.tbb::detail::d1::feeder", ptr, ptr, ptr }
%"class.tbb::detail::d1::feeder" = type { ptr }
%"struct.tbb::detail::d2::feeder_item_task" = type { %"class.tbb::detail::d1::task", ptr, ptr, %"class.tbb::detail::d1::small_object_allocator", [40 x i8] }

; Function Attrs: mustprogress nounwind
define internal void @_ZZN4mold3elfL4markINS0_3SH4EEEvRNS0_7ContextIT_EERN3tbb6detail2d117concurrent_vectorIPNS0_12InputSectionIS4_EENS9_23cache_aligned_allocatorISD_EEEEENKUlPNSB_IS2_EERNS9_6feederISJ_EEE_clESJ_SM_(ptr noundef nonnull align 8 dereferenceable(8) %this, ptr noundef %isec, ptr noundef nonnull align 8 dereferenceable(8) %feeder) #4 align 2 {
entry:
  %this.addr = alloca ptr, align 8
  %isec.addr = alloca ptr, align 8
  %feeder.addr = alloca ptr, align 8
  store ptr %this, ptr %this.addr, align 8
  store ptr %isec, ptr %isec.addr, align 8
  store ptr %feeder, ptr %feeder.addr, align 8
  %this1 = load ptr, ptr %this.addr, align 8
  %0 = getelementptr inbounds %class.anon.403, ptr %this1, i32 0, i32 0
  %1 = load ptr, ptr %0, align 8
  %2 = load ptr, ptr %isec.addr, align 8
  %3 = load ptr, ptr %feeder.addr, align 8
  call void @_ZN4mold3elfL5visitINS0_3SH4EEEvRNS0_7ContextIT_EEPNS0_12InputSectionIS4_EERN3tbb6detail2d16feederIS9_EEl(ptr noundef nonnull align 8 dereferenceable(4568) %1, ptr noundef %2, ptr noundef nonnull align 8 dereferenceable(8) %3, i64 noundef 0)
  ret void
}

; Function Attrs: mustprogress nounwind
define internal void @_ZSt13__invoke_implIvRKZN4mold3elfL4markINS1_3SH4EEEvRNS1_7ContextIT_EERN3tbb6detail2d117concurrent_vectorIPNS1_12InputSectionIS5_EENSA_23cache_aligned_allocatorISE_EEEEEUlPNSC_IS3_EERNSA_6feederISK_EEE_JSK_RNS9_2d211feeder_implISO_SK_EEEES5_St14__invoke_otherOT0_DpOT1_(ptr noundef nonnull align 8 dereferenceable(8) %__f, ptr noundef nonnull align 8 dereferenceable(8) %__args, ptr noundef nonnull align 8 dereferenceable(32) %__args1) #4 {
entry:
  %__f.addr = alloca ptr, align 8
  %__args.addr = alloca ptr, align 8
  %__args.addr2 = alloca ptr, align 8
  store ptr %__f, ptr %__f.addr, align 8
  store ptr %__args, ptr %__args.addr, align 8
  store ptr %__args1, ptr %__args.addr2, align 8
  %0 = load ptr, ptr %__f.addr, align 8
  %1 = load ptr, ptr %__args.addr, align 8
  %2 = load ptr, ptr %1, align 8
  %3 = load ptr, ptr %__args.addr2, align 8
  call void @_ZZN4mold3elfL4markINS0_3SH4EEEvRNS0_7ContextIT_EERN3tbb6detail2d117concurrent_vectorIPNS0_12InputSectionIS4_EENS9_23cache_aligned_allocatorISD_EEEEENKUlPNSB_IS2_EERNS9_6feederISJ_EEE_clESJ_SM_(ptr noundef nonnull align 8 dereferenceable(8) %0, ptr noundef %2, ptr noundef nonnull align 8 dereferenceable(8) %3)
  ret void
}

; Function Attrs: mustprogress nounwind
define internal void @_ZSt8__invokeIRKZN4mold3elfL4markINS1_3SH4EEEvRNS1_7ContextIT_EERN3tbb6detail2d117concurrent_vectorIPNS1_12InputSectionIS5_EENSA_23cache_aligned_allocatorISE_EEEEEUlPNSC_IS3_EERNSA_6feederISK_EEE_JSK_RNS9_2d211feeder_implISO_SK_EEEENSt15__invoke_resultIS5_JDpT0_EE4typeEOS5_DpOSW_(ptr noundef nonnull align 8 dereferenceable(8) %__fn, ptr noundef nonnull align 8 dereferenceable(8) %__args, ptr noundef nonnull align 8 dereferenceable(32) %__args1) #4 {
entry:
  %__fn.addr = alloca ptr, align 8
  %__args.addr = alloca ptr, align 8
  %__args.addr2 = alloca ptr, align 8
  store ptr %__fn, ptr %__fn.addr, align 8
  store ptr %__args, ptr %__args.addr, align 8
  store ptr %__args1, ptr %__args.addr2, align 8
  %0 = load ptr, ptr %__fn.addr, align 8
  %1 = load ptr, ptr %__args.addr, align 8
  %2 = load ptr, ptr %__args.addr2, align 8
  call void @_ZSt13__invoke_implIvRKZN4mold3elfL4markINS1_3SH4EEEvRNS1_7ContextIT_EERN3tbb6detail2d117concurrent_vectorIPNS1_12InputSectionIS5_EENSA_23cache_aligned_allocatorISE_EEEEEUlPNSC_IS3_EERNSA_6feederISK_EEE_JSK_RNS9_2d211feeder_implISO_SK_EEEES5_St14__invoke_otherOT0_DpOT1_(ptr noundef nonnull align 8 dereferenceable(8) %0, ptr noundef nonnull align 8 dereferenceable(8) %1, ptr noundef nonnull align 8 dereferenceable(32) %2)
  ret void
}

; Function Attrs: mustprogress nounwind
define linkonce_odr dso_local void @_ZN3tbb6detail2d120call_itt_task_notifyENS1_11notify_typeEPv(i32 noundef %0, ptr noundef %1) #4 comdat {
entry:
  %.addr = alloca i32, align 4
  %.addr1 = alloca ptr, align 8
  store i32 %0, ptr %.addr, align 4
  store ptr %1, ptr %.addr1, align 8
  ret void
}

; Function Attrs: mustprogress nounwind
define internal void @_ZSt6invokeIRKZN4mold3elfL4markINS1_3SH4EEEvRNS1_7ContextIT_EERN3tbb6detail2d117concurrent_vectorIPNS1_12InputSectionIS5_EENSA_23cache_aligned_allocatorISE_EEEEEUlPNSC_IS3_EERNSA_6feederISK_EEE_JSK_RNS9_2d211feeder_implISO_SK_EEEENSt13invoke_resultIS5_JDpT0_EE4typeEOS5_DpOSW_(ptr noundef nonnull align 8 dereferenceable(8) %__fn, ptr noundef nonnull align 8 dereferenceable(8) %__args, ptr noundef nonnull align 8 dereferenceable(32) %__args1) #4 {
entry:
  %__fn.addr = alloca ptr, align 8
  %__args.addr = alloca ptr, align 8
  %__args.addr2 = alloca ptr, align 8
  store ptr %__fn, ptr %__fn.addr, align 8
  store ptr %__args, ptr %__args.addr, align 8
  store ptr %__args1, ptr %__args.addr2, align 8
  %0 = load ptr, ptr %__fn.addr, align 8
  %1 = load ptr, ptr %__args.addr, align 8
  %2 = load ptr, ptr %__args.addr2, align 8
  call void @_ZSt8__invokeIRKZN4mold3elfL4markINS1_3SH4EEEvRNS1_7ContextIT_EERN3tbb6detail2d117concurrent_vectorIPNS1_12InputSectionIS5_EENSA_23cache_aligned_allocatorISE_EEEEEUlPNSC_IS3_EERNSA_6feederISK_EEE_JSK_RNS9_2d211feeder_implISO_SK_EEEENSt15__invoke_resultIS5_JDpT0_EE4typeEOS5_DpOSW_(ptr noundef nonnull align 8 dereferenceable(8) %0, ptr noundef nonnull align 8 dereferenceable(8) %1, ptr noundef nonnull align 8 dereferenceable(32) %2)
  ret void
}

; Function Attrs: mustprogress nounwind
define internal void @_ZN3tbb6detail2d122small_object_allocator10deallocateINS0_2d216feeder_item_taskIZN4mold3elfL4markINS7_3SH4EEEvRNS7_7ContextIT_EERNS1_17concurrent_vectorIPNS7_12InputSectionISB_EENS1_23cache_aligned_allocatorISH_EEEEEUlPNSF_IS9_EERNS1_6feederISN_EEE_SN_EEEEvPSB_RKNS1_14execution_dataE(ptr noundef nonnull align 8 dereferenceable(8) %this, ptr noundef %ptr, ptr noundef nonnull align 8 dereferenceable(12) %ed) #4 align 2 {
entry:
  %this.addr = alloca ptr, align 8
  %ptr.addr = alloca ptr, align 8
  %ed.addr = alloca ptr, align 8
  store ptr %this, ptr %this.addr, align 8
  store ptr %ptr, ptr %ptr.addr, align 8
  store ptr %ed, ptr %ed.addr, align 8
  %this1 = load ptr, ptr %this.addr, align 8
  %0 = load ptr, ptr %ptr.addr, align 8
  call void @_ZN3tbb6detail2d120call_itt_task_notifyENS1_11notify_typeEPv(i32 noundef 4, ptr noundef %0)
  %m_pool = getelementptr inbounds %"class.tbb::detail::d1::small_object_allocator", ptr %this1, i32 0, i32 0
  %1 = load ptr, ptr %m_pool, align 8
  %2 = load ptr, ptr %ptr.addr, align 8
  %3 = load ptr, ptr %ed.addr, align 8
  call void @_ZN3tbb6detail2r110deallocateERNS0_2d117small_object_poolEPvmRKNS2_14execution_dataE(ptr noundef nonnull align 1 dereferenceable(1) %1, ptr noundef %2, i64 noundef 128, ptr noundef nonnull align 8 dereferenceable(12) %3)
  ret void
}

; Function Attrs: mustprogress nounwind
define linkonce_odr dso_local void @_ZN3tbb6detail2d112wait_context13add_referenceEl(ptr noundef nonnull align 8 dereferenceable(16) %this, i64 noundef %delta) #4 comdat align 2 {
entry:
  %this.addr.i = alloca ptr, align 8
  %__i.addr.i = alloca i64, align 8
  %__m.addr.i = alloca i32, align 4
  %.atomictmp.i = alloca i64, align 8
  %atomic-temp.i = alloca i64, align 8
  %this.addr = alloca ptr, align 8
  %delta.addr = alloca i64, align 8
  %r = alloca i64, align 8
  %wait_ctx_addr = alloca i64, align 8
  store ptr %this, ptr %this.addr, align 8
  store i64 %delta, ptr %delta.addr, align 8
  %this1 = load ptr, ptr %this.addr, align 8
  call void @_ZN3tbb6detail2d120call_itt_task_notifyENS1_11notify_typeEPv(i32 noundef 3, ptr noundef %this1)
  %m_ref_count = getelementptr inbounds %"class.tbb::detail::d1::wait_context", ptr %this1, i32 0, i32 1
  %0 = load i64, ptr %delta.addr, align 8
  store ptr %m_ref_count, ptr %this.addr.i, align 8
  store i64 %0, ptr %__i.addr.i, align 8
  store i32 5, ptr %__m.addr.i, align 4
  %this1.i = load ptr, ptr %this.addr.i, align 8
  %1 = load i32, ptr %__m.addr.i, align 4
  %2 = load i64, ptr %__i.addr.i, align 8
  store i64 %2, ptr %.atomictmp.i, align 8
  switch i32 %1, label %monotonic.i [
    i32 1, label %acquire.i
    i32 2, label %acquire.i
    i32 3, label %release.i
    i32 4, label %acqrel.i
    i32 5, label %seqcst.i
  ]

monotonic.i:                                      ; preds = %entry
  %3 = load i64, ptr %.atomictmp.i, align 8
  %4 = atomicrmw add ptr %this1.i, i64 %3 monotonic, align 8
  store i64 %4, ptr %atomic-temp.i, align 8
  br label %_ZNSt13__atomic_baseImE9fetch_addEmSt12memory_order.exit

acquire.i:                                        ; preds = %entry, %entry
  %5 = load i64, ptr %.atomictmp.i, align 8
  %6 = atomicrmw add ptr %this1.i, i64 %5 acquire, align 8
  store i64 %6, ptr %atomic-temp.i, align 8
  br label %_ZNSt13__atomic_baseImE9fetch_addEmSt12memory_order.exit

release.i:                                        ; preds = %entry
  %7 = load i64, ptr %.atomictmp.i, align 8
  %8 = atomicrmw add ptr %this1.i, i64 %7 release, align 8
  store i64 %8, ptr %atomic-temp.i, align 8
  br label %_ZNSt13__atomic_baseImE9fetch_addEmSt12memory_order.exit

acqrel.i:                                         ; preds = %entry
  %9 = load i64, ptr %.atomictmp.i, align 8
  %10 = atomicrmw add ptr %this1.i, i64 %9 acq_rel, align 8
  store i64 %10, ptr %atomic-temp.i, align 8
  br label %_ZNSt13__atomic_baseImE9fetch_addEmSt12memory_order.exit

seqcst.i:                                         ; preds = %entry
  %11 = load i64, ptr %.atomictmp.i, align 8
  %12 = atomicrmw add ptr %this1.i, i64 %11 seq_cst, align 8
  store i64 %12, ptr %atomic-temp.i, align 8
  br label %_ZNSt13__atomic_baseImE9fetch_addEmSt12memory_order.exit

_ZNSt13__atomic_baseImE9fetch_addEmSt12memory_order.exit: ; preds = %seqcst.i, %acqrel.i, %release.i, %acquire.i, %monotonic.i
  %13 = load i64, ptr %atomic-temp.i, align 8
  %14 = load i64, ptr %delta.addr, align 8
  %add = add i64 %13, %14
  store i64 %add, ptr %r, align 8
  %15 = load i64, ptr %r, align 8
  %tobool = icmp ne i64 %15, 0
  br i1 %tobool, label %if.end, label %if.then

if.then:                                          ; preds = %_ZNSt13__atomic_baseImE9fetch_addEmSt12memory_order.exit
  %16 = ptrtoint ptr %this1 to i64
  store i64 %16, ptr %wait_ctx_addr, align 8
  %17 = load i64, ptr %wait_ctx_addr, align 8
  call void @_ZN3tbb6detail2r114notify_waitersEm(i64 noundef %17)
  br label %if.end

if.end:                                           ; preds = %if.then, %_ZNSt13__atomic_baseImE9fetch_addEmSt12memory_order.exit
  ret void
}

; Function Attrs: mustprogress nounwind
define internal void @_ZN3tbb6detail2d06invokeIRKZN4mold3elfL4markINS4_3SH4EEEvRNS4_7ContextIT_EERNS0_2d117concurrent_vectorIPNS4_12InputSectionIS8_EENSB_23cache_aligned_allocatorISF_EEEEEUlPNSD_IS6_EERNSB_6feederISL_EEE_JSL_RNS0_2d211feeder_implISP_SL_EEEEENSt13invoke_resultIS8_JDpT0_EE4typeEOS8_DpOSX_(ptr noundef nonnull align 8 dereferenceable(8) %f, ptr noundef nonnull align 8 dereferenceable(8) %args, ptr noundef nonnull align 8 dereferenceable(32) %args1) #4 {
entry:
  %f.addr = alloca ptr, align 8
  %args.addr = alloca ptr, align 8
  %args.addr2 = alloca ptr, align 8
  store ptr %f, ptr %f.addr, align 8
  store ptr %args, ptr %args.addr, align 8
  store ptr %args1, ptr %args.addr2, align 8
  %0 = load ptr, ptr %f.addr, align 8
  %1 = load ptr, ptr %args.addr, align 8
  %2 = load ptr, ptr %args.addr2, align 8
  call void @_ZSt6invokeIRKZN4mold3elfL4markINS1_3SH4EEEvRNS1_7ContextIT_EERN3tbb6detail2d117concurrent_vectorIPNS1_12InputSectionIS5_EENSA_23cache_aligned_allocatorISE_EEEEEUlPNSC_IS3_EERNSA_6feederISK_EEE_JSK_RNS9_2d211feeder_implISO_SK_EEEENSt13invoke_resultIS5_JDpT0_EE4typeEOS5_DpOSW_(ptr noundef nonnull align 8 dereferenceable(8) %0, ptr noundef nonnull align 8 dereferenceable(8) %1, ptr noundef nonnull align 8 dereferenceable(32) %2)
  ret void
}

; Function Attrs: mustprogress nounwind
define internal void @_ZN3tbb6detail2d122small_object_allocator13delete_objectINS0_2d216feeder_item_taskIZN4mold3elfL4markINS7_3SH4EEEvRNS7_7ContextIT_EERNS1_17concurrent_vectorIPNS7_12InputSectionISB_EENS1_23cache_aligned_allocatorISH_EEEEEUlPNSF_IS9_EERNS1_6feederISN_EEE_SN_EEEEvPSB_RKNS1_14execution_dataE(ptr noundef nonnull align 8 dereferenceable(8) %this, ptr noundef %object, ptr noundef nonnull align 8 dereferenceable(12) %ed) #4 align 2 {
entry:
  %this.addr = alloca ptr, align 8
  %object.addr = alloca ptr, align 8
  %ed.addr = alloca ptr, align 8
  %alloc = alloca %"class.tbb::detail::d1::small_object_allocator", align 8
  store ptr %this, ptr %this.addr, align 8
  store ptr %object, ptr %object.addr, align 8
  store ptr %ed, ptr %ed.addr, align 8
  %this1 = load ptr, ptr %this.addr, align 8
  call void @llvm.memcpy.p0.p0.i64(ptr align 8 %alloc, ptr align 8 %this1, i64 8, i1 false)
  %0 = load ptr, ptr %object.addr, align 8
  %vtable = load ptr, ptr %0, align 64
  %vfn = getelementptr inbounds ptr, ptr %vtable, i64 0
  %1 = load ptr, ptr %vfn, align 8
  call void %1(ptr noundef nonnull align 64 dereferenceable(88) %0) #3
  %2 = load ptr, ptr %object.addr, align 8
  %3 = load ptr, ptr %ed.addr, align 8
  call void @_ZN3tbb6detail2d122small_object_allocator10deallocateINS0_2d216feeder_item_taskIZN4mold3elfL4markINS7_3SH4EEEvRNS7_7ContextIT_EERNS1_17concurrent_vectorIPNS7_12InputSectionISB_EENS1_23cache_aligned_allocatorISH_EEEEEUlPNSF_IS9_EERNS1_6feederISN_EEE_SN_EEEEvPSB_RKNS1_14execution_dataE(ptr noundef nonnull align 8 dereferenceable(8) %alloc, ptr noundef %2, ptr noundef nonnull align 8 dereferenceable(12) %3)
  ret void
}

; Function Attrs: mustprogress nounwind
define linkonce_odr dso_local void @_ZN3tbb6detail2d112wait_context7releaseEj(ptr noundef nonnull align 8 dereferenceable(16) %this, i32 noundef %delta) #4 comdat align 2 {
entry:
  %this.addr = alloca ptr, align 8
  %delta.addr = alloca i32, align 4
  store ptr %this, ptr %this.addr, align 8
  store i32 %delta, ptr %delta.addr, align 4
  %this1 = load ptr, ptr %this.addr, align 8
  %0 = load i32, ptr %delta.addr, align 4
  %conv = zext i32 %0 to i64
  %sub = sub nsw i64 0, %conv
  call void @_ZN3tbb6detail2d112wait_context13add_referenceEl(ptr noundef nonnull align 8 dereferenceable(16) %this1, i64 noundef %sub)
  ret void
}

; Function Attrs: mustprogress nounwind
define internal void @_ZN3tbb6detail2d235parallel_for_each_operator_selectorIZN4mold3elfL4markINS4_3SH4EEEvRNS4_7ContextIT_EERNS0_2d117concurrent_vectorIPNS4_12InputSectionIS8_EENSB_23cache_aligned_allocatorISF_EEEEEUlPNSD_IS6_EERNSB_6feederISL_EEE_E4callISL_NS1_11feeder_implISP_SL_EEEEDTcmclsr3tbb6detailE6invokefp_clsr3stdE7forwardIS8_Efp0_Edefp1_Ecvv_EERKSP_OS8_PT0_(ptr noundef nonnull align 8 dereferenceable(8) %body, ptr noundef nonnull align 8 dereferenceable(8) %item, ptr noundef %feeder) #4 align 2 {
entry:
  %body.addr = alloca ptr, align 8
  %item.addr = alloca ptr, align 8
  %feeder.addr = alloca ptr, align 8
  store ptr %body, ptr %body.addr, align 8
  store ptr %item, ptr %item.addr, align 8
  store ptr %feeder, ptr %feeder.addr, align 8
  %0 = load ptr, ptr %body.addr, align 8
  %1 = load ptr, ptr %item.addr, align 8
  %2 = load ptr, ptr %feeder.addr, align 8
  call void @_ZN3tbb6detail2d06invokeIRKZN4mold3elfL4markINS4_3SH4EEEvRNS4_7ContextIT_EERNS0_2d117concurrent_vectorIPNS4_12InputSectionIS8_EENSB_23cache_aligned_allocatorISF_EEEEEUlPNSD_IS6_EERNSB_6feederISL_EEE_JSL_RNS0_2d211feeder_implISP_SL_EEEEENSt13invoke_resultIS8_JDpT0_EE4typeEOS8_DpOSX_(ptr noundef nonnull align 8 dereferenceable(8) %0, ptr noundef nonnull align 8 dereferenceable(8) %1, ptr noundef nonnull align 8 dereferenceable(32) %2)
  ret void
}

; Function Attrs: mustprogress nounwind
define internal void @_ZN3tbb6detail2d216feeder_item_taskIZN4mold3elfL4markINS4_3SH4EEEvRNS4_7ContextIT_EERNS0_2d117concurrent_vectorIPNS4_12InputSectionIS8_EENSB_23cache_aligned_allocatorISF_EEEEEUlPNSD_IS6_EERNSB_6feederISL_EEE_SL_E8finalizeERKNSB_14execution_dataE(ptr noundef nonnull align 64 dereferenceable(88) %this, ptr noundef nonnull align 8 dereferenceable(12) %ed) #4 align 2 {
entry:
  %this.addr = alloca ptr, align 8
  %ed.addr = alloca ptr, align 8
  store ptr %this, ptr %this.addr, align 8
  store ptr %ed, ptr %ed.addr, align 8
  %this1 = load ptr, ptr %this.addr, align 8
  %my_feeder = getelementptr inbounds %"struct.tbb::detail::d2::feeder_item_task", ptr %this1, i32 0, i32 2
  %0 = load ptr, ptr %my_feeder, align 8
  %my_wait_context = getelementptr inbounds %"class.tbb::detail::d2::feeder_impl", ptr %0, i32 0, i32 2
  %1 = load ptr, ptr %my_wait_context, align 8
  call void @_ZN3tbb6detail2d112wait_context7releaseEj(ptr noundef nonnull align 8 dereferenceable(16) %1, i32 noundef 1)
  %my_allocator = getelementptr inbounds %"struct.tbb::detail::d2::feeder_item_task", ptr %this1, i32 0, i32 3
  %2 = load ptr, ptr %ed.addr, align 8
  call void @_ZN3tbb6detail2d122small_object_allocator13delete_objectINS0_2d216feeder_item_taskIZN4mold3elfL4markINS7_3SH4EEEvRNS7_7ContextIT_EERNS1_17concurrent_vectorIPNS7_12InputSectionISB_EENS1_23cache_aligned_allocatorISH_EEEEEUlPNSF_IS9_EERNS1_6feederISN_EEE_SN_EEEEvPSB_RKNS1_14execution_dataE(ptr noundef nonnull align 8 dereferenceable(8) %my_allocator, ptr noundef %this1, ptr noundef nonnull align 8 dereferenceable(12) %2)
  ret void
}

; Function Attrs: mustprogress nounwind
define internal void @_ZN3tbb6detail2d216feeder_item_taskIZN4mold3elfL4markINS4_3SH4EEEvRNS4_7ContextIT_EERNS0_2d117concurrent_vectorIPNS4_12InputSectionIS8_EENSB_23cache_aligned_allocatorISF_EEEEEUlPNSD_IS6_EERNSB_6feederISL_EEE_SL_E4callISP_SL_NS1_11feeder_implISP_SL_EEEEDTcmclsr35parallel_for_each_operator_selectorISP_EE4callfp_clsr3stdE4movefp0_Eadfp1_Ecvv_EERKS8_RT0_RT1_i(ptr noundef nonnull align 8 dereferenceable(8) %call_body, ptr noundef nonnull align 8 dereferenceable(8) %call_item, ptr noundef nonnull align 8 dereferenceable(32) %call_feeder, i32 noundef %0) #4 align 2 {
entry:
  %call_body.addr = alloca ptr, align 8
  %call_item.addr = alloca ptr, align 8
  %call_feeder.addr = alloca ptr, align 8
  %.addr = alloca i32, align 4
  store ptr %call_body, ptr %call_body.addr, align 8
  store ptr %call_item, ptr %call_item.addr, align 8
  store ptr %call_feeder, ptr %call_feeder.addr, align 8
  store i32 %0, ptr %.addr, align 4
  %1 = load ptr, ptr %call_body.addr, align 8
  %2 = load ptr, ptr %call_item.addr, align 8
  %3 = load ptr, ptr %call_feeder.addr, align 8
  call void @_ZN3tbb6detail2d235parallel_for_each_operator_selectorIZN4mold3elfL4markINS4_3SH4EEEvRNS4_7ContextIT_EERNS0_2d117concurrent_vectorIPNS4_12InputSectionIS8_EENSB_23cache_aligned_allocatorISF_EEEEEUlPNSD_IS6_EERNSB_6feederISL_EEE_E4callISL_NS1_11feeder_implISP_SL_EEEEDTcmclsr3tbb6detailE6invokefp_clsr3stdE7forwardIS8_Efp0_Edefp1_Ecvv_EERKSP_OS8_PT0_(ptr noundef nonnull align 8 dereferenceable(8) %1, ptr noundef nonnull align 8 dereferenceable(8) %2, ptr noundef %3)
  ret void
}

; Function Attrs: mustprogress nounwind
define internal noundef ptr @_ZN3tbb6detail2d216feeder_item_taskIZN4mold3elfL4markINS4_3SH4EEEvRNS4_7ContextIT_EERNS0_2d117concurrent_vectorIPNS4_12InputSectionIS8_EENSB_23cache_aligned_allocatorISF_EEEEEUlPNSD_IS6_EERNSB_6feederISL_EEE_SL_E7executeERNSB_14execution_dataE(ptr noundef nonnull align 64 dereferenceable(88) %this, ptr noundef nonnull align 8 dereferenceable(12) %ed) unnamed_addr #4 align 2 {
entry:
  %this.addr = alloca ptr, align 8
  %ed.addr = alloca ptr, align 8
  store ptr %this, ptr %this.addr, align 8
  store ptr %ed, ptr %ed.addr, align 8
  %this1 = load ptr, ptr %this.addr, align 8
  %my_feeder = getelementptr inbounds %"struct.tbb::detail::d2::feeder_item_task", ptr %this1, i32 0, i32 2
  %0 = load ptr, ptr %my_feeder, align 8
  %my_body = getelementptr inbounds %"class.tbb::detail::d2::feeder_impl", ptr %0, i32 0, i32 1
  %1 = load ptr, ptr %my_body, align 8
  %item = getelementptr inbounds %"struct.tbb::detail::d2::feeder_item_task", ptr %this1, i32 0, i32 1
  %my_feeder2 = getelementptr inbounds %"struct.tbb::detail::d2::feeder_item_task", ptr %this1, i32 0, i32 2
  %2 = load ptr, ptr %my_feeder2, align 8
  call void @_ZN3tbb6detail2d216feeder_item_taskIZN4mold3elfL4markINS4_3SH4EEEvRNS4_7ContextIT_EERNS0_2d117concurrent_vectorIPNS4_12InputSectionIS8_EENSB_23cache_aligned_allocatorISF_EEEEEUlPNSD_IS6_EERNSB_6feederISL_EEE_SL_E4callISP_SL_NS1_11feeder_implISP_SL_EEEEDTcmclsr35parallel_for_each_operator_selectorISP_EE4callfp_clsr3stdE4movefp0_Eadfp1_Ecvv_EERKS8_RT0_RT1_i(ptr noundef nonnull align 8 dereferenceable(8) %1, ptr noundef nonnull align 8 dereferenceable(8) %item, ptr noundef nonnull align 8 dereferenceable(32) %2, i32 noundef 0)
  %3 = load ptr, ptr %ed.addr, align 8
  call void @_ZN3tbb6detail2d216feeder_item_taskIZN4mold3elfL4markINS4_3SH4EEEvRNS4_7ContextIT_EERNS0_2d117concurrent_vectorIPNS4_12InputSectionIS8_EENSB_23cache_aligned_allocatorISF_EEEEEUlPNSD_IS6_EERNSB_6feederISL_EEE_SL_E8finalizeERKNSB_14execution_dataE(ptr noundef nonnull align 64 dereferenceable(88) %this1, ptr noundef nonnull align 8 dereferenceable(12) %3)
  ret ptr null
}